target datalayout = "e-m:e-p270:32:32-p271:32:32-p272:64:64-i64:64-i128:128-f80:128-n8:16:32:64-S128"
target triple = "x86_64-pc-linux-gnu"

%struct.ParseContext_ = type { %struct.TokenData, i32, %union.SourceSpan, %union.SourceSpan, ptr, %struct.Lexer }
%struct.TokenData = type { ptr, i64, %union.anon.86 }
%union.anon.86 = type { %struct.anon.89 }
%struct.anon.89 = type { %struct.Int128_, i8 }
%struct.Int128_ = type { i64, i64 }
%union.SourceSpan = type { i64 }
%struct.Lexer = type { ptr, ptr, ptr, ptr, i32, i32, ptr, ptr, ptr, %struct.TokenData, %union.SourceSpan, i32, i32 }
%struct.VHeader_ = type { i32, i32, [0 x i8] }
%struct.Signature_ = type <{ %struct.CalleeAttributes, i16, i8, i32, i32, [4 x i8], ptr }>
%struct.CalleeAttributes = type { i8 }

@.str.82 = private unnamed_addr constant [15 x i8] c"Expected '%s'.\00", align 1

; Function Attrs: nounwind uwtable
define internal zeroext i1 @parse_fn_parameter_list(ptr noundef %0, ptr noundef %1, i1 noundef zeroext %2) #0 {
  %4 = alloca ptr, align 8
  %5 = alloca i32, align 4
  %6 = alloca i1, align 1
  %7 = alloca ptr, align 8
  %8 = alloca i32, align 4
  %9 = alloca ptr, align 8
  %10 = alloca i32, align 4
  %11 = alloca i1, align 1
  %12 = alloca ptr, align 8
  %13 = alloca i32, align 4
  %14 = alloca i32, align 4
  %15 = alloca ptr, align 8
  %16 = alloca ptr, align 8
  %17 = alloca i1, align 1
  %18 = alloca ptr, align 8
  %19 = alloca ptr, align 8
  %20 = alloca i8, align 1
  %21 = alloca ptr, align 8
  %22 = alloca i32, align 4
  %23 = alloca i32, align 4
  store ptr %0, ptr %18, align 8
  store ptr %1, ptr %19, align 8
  %24 = zext i1 %2 to i8
  store i8 %24, ptr %20, align 1
  store ptr null, ptr %21, align 8
  br label %25

25:                                               ; preds = %3
  %26 = load ptr, ptr %18, align 8
  store ptr %26, ptr %7, align 8
  store i32 19, ptr %8, align 4
  %27 = load ptr, ptr %7, align 8
  %28 = load i32, ptr %8, align 4
  store ptr %27, ptr %4, align 8
  store i32 %28, ptr %5, align 4
  %29 = load ptr, ptr %4, align 8
  %30 = getelementptr inbounds %struct.ParseContext_, ptr %29, i32 0, i32 1
  %31 = load i32, ptr %30, align 8
  %32 = load i32, ptr %5, align 4
  %33 = icmp eq i32 %31, %32
  br i1 %33, label %34, label %35

34:                                               ; preds = %25
  store i1 true, ptr %6, align 1
  br label %41

35:                                               ; preds = %25
  %36 = load ptr, ptr %7, align 8
  %37 = getelementptr inbounds %struct.ParseContext_, ptr %36, i32 0, i32 2
  %38 = load i32, ptr %8, align 4
  %39 = call ptr @token_type_to_string(i32 noundef %38) #6
  %40 = load i64, ptr %37, align 8
  call void (i64, ptr, ...) @sema_error_at(i64 %40, ptr noundef @.str.82, ptr noundef %39) #6
  store i1 false, ptr %6, align 1
  br label %41

41:                                               ; preds = %35, %34
  %42 = load i1, ptr %6, align 1
  br i1 %42, label %44, label %43

43:                                               ; preds = %41
  store i1 false, ptr %17, align 1
  br label %105

44:                                               ; preds = %41
  %45 = load ptr, ptr %18, align 8
  call void @advance(ptr noundef %45)
  br label %46

46:                                               ; preds = %44
  store i32 0, ptr %22, align 4
  store i32 -1, ptr %23, align 4
  %47 = load ptr, ptr %18, align 8
  %48 = call zeroext i1 @parse_parameters(ptr noundef %47, ptr noundef %21, ptr noundef null, ptr noundef %22, ptr noundef %23, i32 noundef 1)
  br i1 %48, label %50, label %49

49:                                               ; preds = %46
  store i1 false, ptr %17, align 1
  br label %105

50:                                               ; preds = %46
  br label %51

51:                                               ; preds = %50
  %52 = load ptr, ptr %18, align 8
  store ptr %52, ptr %12, align 8
  store i32 26, ptr %13, align 4
  %53 = load ptr, ptr %12, align 8
  %54 = load i32, ptr %13, align 4
  store ptr %53, ptr %9, align 8
  store i32 %54, ptr %10, align 4
  %55 = load ptr, ptr %9, align 8
  %56 = getelementptr inbounds %struct.ParseContext_, ptr %55, i32 0, i32 1
  %57 = load i32, ptr %56, align 8
  %58 = load i32, ptr %10, align 4
  %59 = icmp eq i32 %57, %58
  br i1 %59, label %60, label %61

60:                                               ; preds = %51
  store i1 true, ptr %11, align 1
  br label %67

61:                                               ; preds = %51
  %62 = load ptr, ptr %12, align 8
  %63 = getelementptr inbounds %struct.ParseContext_, ptr %62, i32 0, i32 2
  %64 = load i32, ptr %13, align 4
  %65 = call ptr @token_type_to_string(i32 noundef %64) #6
  %66 = load i64, ptr %63, align 8
  call void (i64, ptr, ...) @sema_error_at(i64 %66, ptr noundef @.str.82, ptr noundef %65) #6
  store i1 false, ptr %11, align 1
  br label %67

67:                                               ; preds = %61, %60
  %68 = load i1, ptr %11, align 1
  br i1 %68, label %70, label %69

69:                                               ; preds = %67
  store i1 false, ptr %17, align 1
  br label %105

70:                                               ; preds = %67
  %71 = load ptr, ptr %18, align 8
  call void @advance(ptr noundef %71)
  br label %72

72:                                               ; preds = %70
  %73 = load i32, ptr %23, align 4
  %74 = icmp slt i32 %73, 0
  br i1 %74, label %75, label %87

75:                                               ; preds = %72
  %76 = load ptr, ptr %21, align 8
  store ptr %76, ptr %15, align 8
  %77 = load ptr, ptr %15, align 8
  %78 = icmp ne ptr %77, null
  br i1 %78, label %80, label %79

79:                                               ; preds = %75
  store i32 0, ptr %14, align 4
  br label %85

80:                                               ; preds = %75
  %81 = load ptr, ptr %15, align 8
  store ptr %81, ptr %16, align 8
  %82 = load ptr, ptr %16, align 8
  %83 = getelementptr inbounds %struct.VHeader_, ptr %82, i64 -1
  %84 = load i32, ptr %83, align 4
  store i32 %84, ptr %14, align 4
  br label %85

85:                                               ; preds = %80, %79
  %86 = load i32, ptr %14, align 4
  br label %89

87:                                               ; preds = %72
  %88 = load i32, ptr %23, align 4
  br label %89

89:                                               ; preds = %87, %85
  %90 = phi i32 [ %86, %85 ], [ %88, %87 ]
  %91 = load ptr, ptr %19, align 8
  %92 = getelementptr inbounds %struct.Signature_, ptr %91, i32 0, i32 3
  store i32 %90, ptr %92, align 4
  %93 = load ptr, ptr %21, align 8
  %94 = load ptr, ptr %19, align 8
  %95 = getelementptr inbounds %struct.Signature_, ptr %94, i32 0, i32 6
  store ptr %93, ptr %95, align 8
  %96 = load i32, ptr %22, align 4
  %97 = load ptr, ptr %19, align 8
  %98 = getelementptr inbounds %struct.Signature_, ptr %97, i32 0, i32 1
  %99 = trunc i32 %96 to i16
  %100 = load i16, ptr %98, align 1
  %101 = and i16 %99, 7
  %102 = shl i16 %101, 3
  %103 = and i16 %100, -57
  %104 = or i16 %103, %102
  store i16 %104, ptr %98, align 1
  store i1 true, ptr %17, align 1
  br label %105

105:                                              ; preds = %89, %69, %49, %43
  %106 = load i1, ptr %17, align 1
  ret i1 %106
}