; Function Attrs: nounwind uwtable
define internal fastcc noundef zeroext i1 @parse_fn_parameter_list(ptr noundef %0, ptr nocapture noundef %1) unnamed_addr #0 {
  %3 = alloca ptr, align 8
  %4 = alloca i32, align 4
  %5 = alloca i32, align 4
  store ptr null, ptr %3, align 8
  %6 = getelementptr inbounds i8, ptr %0, i64 40
  %7 = load i32, ptr %6, align 8
  %8 = icmp eq i32 %7, 19
  br i1 %8, label %.critedge, label %9

9:                                                ; preds = %2
  %10 = getelementptr inbounds i8, ptr %0, i64 48
  %11 = tail call ptr @token_type_to_string(i32 noundef 19) #8
  %12 = load i64, ptr %10, align 8
  tail call void (i64, ptr, ...) @sema_error_at(i64 %12, ptr noundef nonnull @.str.82, ptr noundef %11) #8
  br label %39

.critedge:                                        ; preds = %2
  tail call void @advance(ptr noundef nonnull %0) #8
  store i32 0, ptr %4, align 4
  store i32 -1, ptr %5, align 4
  %13 = call zeroext i1 @parse_parameters(ptr noundef nonnull %0, ptr noundef nonnull %3, ptr poison, ptr noundef nonnull %4, ptr noundef nonnull %5, i32 noundef 1)
  br i1 %13, label %14, label %39

14:                                               ; preds = %.critedge
  %15 = load i32, ptr %6, align 8
  %16 = icmp eq i32 %15, 26
  br i1 %16, label %.critedge32, label %17

17:                                               ; preds = %14
  %18 = getelementptr inbounds i8, ptr %0, i64 48
  %19 = call ptr @token_type_to_string(i32 noundef 26) #8
  %20 = load i64, ptr %18, align 8
  call void (i64, ptr, ...) @sema_error_at(i64 %20, ptr noundef nonnull @.str.82, ptr noundef %19) #8
  br label %39

.critedge32:                                      ; preds = %14
  call void @advance(ptr noundef nonnull %0) #8
  %21 = load i32, ptr %5, align 4
  %22 = icmp slt i32 %21, 0
  %.pre = load ptr, ptr %3, align 8
  br i1 %22, label %23, label %27

23:                                               ; preds = %.critedge32
  %.not = icmp eq ptr %.pre, null
  br i1 %.not, label %27, label %24

24:                                               ; preds = %23
  %25 = getelementptr inbounds i8, ptr %.pre, i64 -8
  %26 = load i32, ptr %25, align 4
  br label %27

27:                                               ; preds = %.critedge32, %24, %23
  %28 = phi i32 [ %26, %24 ], [ 0, %23 ], [ %21, %.critedge32 ]
  %29 = getelementptr inbounds i8, ptr %1, i64 4
  store i32 %28, ptr %29, align 4
  %30 = getelementptr inbounds i8, ptr %1, i64 16
  store ptr %.pre, ptr %30, align 8
  %31 = load i32, ptr %4, align 4
  %32 = getelementptr inbounds i8, ptr %1, i64 1
  %33 = trunc i32 %31 to i16
  %34 = load i16, ptr %32, align 1
  %35 = shl i16 %33, 3
  %36 = and i16 %35, 56
  %37 = and i16 %34, -57
  %38 = or disjoint i16 %36, %37
  store i16 %38, ptr %32, align 1
  br label %39

39:                                               ; preds = %17, %9, %.critedge, %27
  %.028 = phi i1 [ true, %27 ], [ false, %9 ], [ false, %.critedge ], [ false, %17 ]
  ret i1 %.028
}